   1              		.ident "ncc 1.1.4 (Build 10:17:22 Apr 19 2018)"
   2              		.file "bug-fq_fn_fq8.c"
   3              		.file 1 "/usr/uhome/aurora/4gi/nlabhpg/kruus/vt/src/asm-examples/bug-fq_fn_fq8.c"
   4              		.file 2 "/opt/nec/ve/ncc/1.1.4/include/stdc-predef.h"
   5              		.file 3 "/opt/nec/ve/ncc/1.1.4/include/stdio.h"
   6              		.file 4 "/opt/nec/ve/ncc/1.1.4/include/yvals.h"
   7              		.file 5 "/opt/nec/ve/ncc/1.1.4/include/necvals.h"
   8              		.file 6 "/opt/nec/ve/ncc/1.1.4/include/stdarg.h"
   9              		.file 7 "/opt/nec/ve/musl/include/stdio.h"
  10              		.file 8 "/opt/nec/ve/musl/include/features.h"
  11              		.file 9 "/opt/nec/ve/musl/include/bits/alltypes.h"
  12              		.file 10 "/opt/nec/ve/ncc/1.1.4/include/complex.h"
  13              		.file 11 "/opt/nec/ve/ncc/1.1.4/include/_complex_builtin.h"
  14              	# ============ Begin  fq_f_fq8 ============
  15              		.section .rodata
  16              		.balign 16
  18              	.LP.__string.0:
  19 0000 20       		.byte	32
  20 0001 66       		.byte	102
  21 0002 71       		.byte	113
  22 0003 5F       		.byte	95
  23 0004 66       		.byte	102
  24 0005 5F       		.byte	95
  25 0006 66       		.byte	102
  26 0007 71       		.byte	113
  27 0008 38       		.byte	56
  28 0009 3A       		.byte	58
  29 000a 20       		.byte	32
  30 000b 31       		.byte	49
  31 000c 73       		.byte	115
  32 000d 74       		.byte	116
  33 000e 20       		.byte	32
  34 000f 61       		.byte	97
  35 0010 72       		.byte	114
  36 0011 67       		.byte	103
  37 0012 3D       		.byte	61
  38 0013 28       		.byte	40
  39 0014 25       		.byte	37
  40 0015 66       		.byte	102
  41 0016 2C       		.byte	44
  42 0017 25       		.byte	37
  43 0018 66       		.byte	102
  44 0019 29       		.byte	41
  45 001a 2C       		.byte	44
  46 001b 20       		.byte	32
  47 001c 32       		.byte	50
  48 001d 6E       		.byte	110
  49 001e 64       		.byte	100
  50 001f 20       		.byte	32
  51 0020 61       		.byte	97
  52 0021 72       		.byte	114
  53 0022 67       		.byte	103
  54 0023 3D       		.byte	61
  55 0024 28       		.byte	40
  56 0025 25       		.byte	37
  57 0026 66       		.byte	102
  58 0027 2C       		.byte	44
  59 0028 25       		.byte	37
  60 0029 66       		.byte	102
  61 002a 29       		.byte	41
  62 002b 2C       		.byte	44
  63 002c 20       		.byte	32
  64 002d 33       		.byte	51
  65 002e 72       		.byte	114
  66 002f 64       		.byte	100
  67 0030 20       		.byte	32
  68 0031 61       		.byte	97
  69 0032 72       		.byte	114
  70 0033 67       		.byte	103
  71 0034 3D       		.byte	61
  72 0035 28       		.byte	40
  73 0036 25       		.byte	37
  74 0037 66       		.byte	102
  75 0038 2C       		.byte	44
  76 0039 25       		.byte	37
  77 003a 66       		.byte	102
  78 003b 29       		.byte	41
  79 003c 2C       		.byte	44
  80 003d 20       		.byte	32
  81 003e 34       		.byte	52
  82 003f 74       		.byte	116
  83 0040 68       		.byte	104
  84 0041 20       		.byte	32
  85 0042 61       		.byte	97
  86 0043 72       		.byte	114
  87 0044 67       		.byte	103
  88 0045 3D       		.byte	61
  89 0046 28       		.byte	40
  90 0047 25       		.byte	37
  91 0048 66       		.byte	102
  92 0049 2C       		.byte	44
  93 004a 25       		.byte	37
  94 004b 66       		.byte	102
  95 004c 29       		.byte	41
  96 004d 0A       		.byte	10
  97 004e 20       		.byte	32
  98 004f 20       		.byte	32
  99 0050 20       		.byte	32
 100 0051 20       		.byte	32
 101 0052 20       		.byte	32
 102 0053 20       		.byte	32
 103 0054 20       		.byte	32
 104 0055 20       		.byte	32
 105 0056 20       		.byte	32
 106 0057 20       		.byte	32
 107 0058 20       		.byte	32
 108 0059 35       		.byte	53
 109 005a 74       		.byte	116
 110 005b 68       		.byte	104
 111 005c 20       		.byte	32
 112 005d 61       		.byte	97
 113 005e 72       		.byte	114
 114 005f 67       		.byte	103
 115 0060 3D       		.byte	61
 116 0061 28       		.byte	40
 117 0062 25       		.byte	37
 118 0063 66       		.byte	102
 119 0064 2C       		.byte	44
 120 0065 25       		.byte	37
 121 0066 66       		.byte	102
 122 0067 29       		.byte	41
 123 0068 2C       		.byte	44
 124 0069 20       		.byte	32
 125 006a 36       		.byte	54
 126 006b 74       		.byte	116
 127 006c 68       		.byte	104
 128 006d 20       		.byte	32
 129 006e 61       		.byte	97
 130 006f 72       		.byte	114
 131 0070 67       		.byte	103
 132 0071 3D       		.byte	61
 133 0072 28       		.byte	40
 134 0073 25       		.byte	37
 135 0074 66       		.byte	102
 136 0075 2C       		.byte	44
 137 0076 25       		.byte	37
 138 0077 66       		.byte	102
 139 0078 29       		.byte	41
 140 0079 2C       		.byte	44
 141 007a 20       		.byte	32
 142 007b 37       		.byte	55
 143 007c 74       		.byte	116
 144 007d 68       		.byte	104
 145 007e 20       		.byte	32
 146 007f 61       		.byte	97
 147 0080 72       		.byte	114
 148 0081 67       		.byte	103
 149 0082 3D       		.byte	61
 150 0083 28       		.byte	40
 151 0084 25       		.byte	37
 152 0085 66       		.byte	102
 153 0086 2C       		.byte	44
 154 0087 25       		.byte	37
 155 0088 66       		.byte	102
 156 0089 29       		.byte	41
 157 008a 2C       		.byte	44
 158 008b 20       		.byte	32
 159 008c 38       		.byte	56
 160 008d 74       		.byte	116
 161 008e 68       		.byte	104
 162 008f 20       		.byte	32
 163 0090 61       		.byte	97
 164 0091 72       		.byte	114
 165 0092 67       		.byte	103
 166 0093 3D       		.byte	61
 167 0094 28       		.byte	40
 168 0095 25       		.byte	37
 169 0096 66       		.byte	102
 170 0097 2C       		.byte	44
 171 0098 25       		.byte	37
 172 0099 66       		.byte	102
 173 009a 29       		.byte	41
 174 009b 0A       		.byte	10
 175 009c 00       		.zero	1
 176 009d 000000   		.balign 8
 178              	.LP.__string.1:
 179 00a0 20       		.byte	32
 180 00a1 66       		.byte	102
 181 00a2 71       		.byte	113
 182 00a3 5F       		.byte	95
 183 00a4 66       		.byte	102
 184 00a5 5F       		.byte	95
 185 00a6 66       		.byte	102
 186 00a7 71       		.byte	113
 187 00a8 38       		.byte	56
 188 00a9 3A       		.byte	58
 189 00aa 20       		.byte	32
 190 00ab 73       		.byte	115
 191 00ac 75       		.byte	117
 192 00ad 6D       		.byte	109
 193 00ae 3D       		.byte	61
 194 00af 28       		.byte	40
 195 00b0 25       		.byte	37
 196 00b1 66       		.byte	102
 197 00b2 2C       		.byte	44
 198 00b3 25       		.byte	37
 199 00b4 66       		.byte	102
 200 00b5 29       		.byte	41
 201 00b6 0A       		.byte	10
 202 00b7 00       		.zero	1
 203              		.text
 204              		.balign 16
 205              	.L_1.0:
 206              	# line 5
   1:/usr/uhome/aurora/4gi/nlabhpg/kruus/vt/src/asm-examples/bug-fq_fn_fq8.c **** #include <stdio.h>
   2:/usr/uhome/aurora/4gi/nlabhpg/kruus/vt/src/asm-examples/bug-fq_fn_fq8.c **** #include <complex.h>
   3:/usr/uhome/aurora/4gi/nlabhpg/kruus/vt/src/asm-examples/bug-fq_fn_fq8.c **** float complex fq_f_fq8( float complex a, float complex b, float complex c,
   4:/usr/uhome/aurora/4gi/nlabhpg/kruus/vt/src/asm-examples/bug-fq_fn_fq8.c **** 		float complex d, float complex e, float complex f,
   5:/usr/uhome/aurora/4gi/nlabhpg/kruus/vt/src/asm-examples/bug-fq_fn_fq8.c **** 		float complex g, float complex h ){
 207              		.loc	1 5 0
 208              		.globl	fq_f_fq8
 210              	fq_f_fq8:
 211              		.cfi_startproc
 212 0000 00000000 		st	%fp,0x0(,%sp)
 212      8B000911 
 213              		.cfi_def_cfa_offset	0
 214              		.cfi_offset	9,0
 215 0008 08000000 		st	%lr,0x8(,%sp)
 215      8B000A11 
 216 0010 18000000 		st	%got,0x18(,%sp)
 216      8B000F11 
 217 0018 20000000 		st	%plt,0x20(,%sp)
 217      8B001011 
 218 0020 00000000 		lea	%got,_GLOBAL_OFFSET_TABLE_@PC_LO(-0x18)
 218      00680F06 
 219 0028 00000000 		and	%got,%got,(32)0
 219      608F0F44 
 220 0030 00000000 		sic	%plt
 220      00001028 
 221 0038 00000000 		lea.sl	%got,_GLOBAL_OFFSET_TABLE_@PC_HI(%plt,%got)
 221      8F908F06 
 222 0040 00000000 		or	%fp,0,%sp
 222      8B000945 
 223              		.cfi_def_cfa_register	9
 224 0048 30000000 		st	%s18,48(,%fp)
 224      89001211 
 225 0050 38000000 		st	%s19,56(,%fp)
 225      89001311 
 226 0058 40000000 		st	%s20,64(,%fp)
 226      89001411 
 227 0060 48000000 		st	%s21,72(,%fp)
 227      89001511 
 228 0068 50000000 		st	%s22,80(,%fp)
 228      89001611 
 229 0070 58000000 		st	%s23,88(,%fp)
 229      89001711 
 230 0078 60000000 		st	%s24,96(,%fp)
 230      89001811 
 231 0080 68000000 		st	%s25,104(,%fp)
 231      89001911 
 232 0088 70000000 		st	%s26,112(,%fp)
 232      89001A11 
 233 0090 78000000 		st	%s27,120(,%fp)
 233      89001B11 
 234 0098 80000000 		st	%s28,128(,%fp)
 234      89001C11 
 235 00a0 88000000 		st	%s29,136(,%fp)
 235      89001D11 
 236 00a8 90000000 		st	%s30,144(,%fp)
 236      89001E11 
 237 00b0 98000000 		st	%s31,152(,%fp)
 237      89001F11 
 238 00b8 A0000000 		st	%s32,160(,%fp)
 238      89002011 
 239 00c0 A8000000 		st	%s33,168(,%fp)
 239      89002111 
 240 00c8 90FBFFFF 		lea	%s13,.L.1.2auto_size&0xffffffff
 240      00000D06 
 241 00d0 00000000 		and	%s13,%s13,(32)0
 241      608D0D44 
 242 00d8 FFFFFFFF 		lea.sl	%sp,.L.1.2auto_size>>32(%fp,%s13)
 242      8D898B06 
 243 00e0 48000000 		brge.l.t	%sp,%sl,.L_1.EoP
 243      888B3518 
 244 00e8 18000000 		ld	%s61,0x18(,%tp)
 244      8E003D01 
 245 00f0 00000000 		or	%s62,0,%s0
 245      80003E45 
 246 00f8 3B010000 		lea	%s63,0x13b
 246      00003F06 
 247 0100 00000000 		shm.l	%s63,0x0(%s61)
 247      BD033F31 
 248 0108 08000000 		shm.l	%sl,0x8(%s61)
 248      BD030831 
 249 0110 10000000 		shm.l	%sp,0x10(%s61)
 249      BD030B31 
 250 0118 00000000 		monc
 250      0000003F 
 251 0120 00000000 		or	%s0,0,%s62
 251      BE000045 
 252              	.L_1.EoP:
 253              	# End of prologue codes
 254 0128 24010000 		ldu	%s63,292(0,%fp)	# fq_f_fq8.__unnamed.7 (real)
 254      89003F02 
 255 0130 2C010000 		ldu	%s62,300(0,%fp)	# fq_f_fq8.__unnamed.7 (imaginary)
 255      89003E02 
 256 0138 14010000 		ldu	%s61,276(0,%fp)	# fq_f_fq8.__unnamed.6 (real)
 256      89003D02 
 257 0140 1C010000 		ldu	%s60,284(0,%fp)	# fq_f_fq8.__unnamed.6 (imaginary)
 257      89003C02 
 258 0148 04010000 		ldu	%s59,260(0,%fp)	# fq_f_fq8.__unnamed.5 (real)
 258      89003B02 
 259 0150 0C010000 		ldu	%s58,268(0,%fp)	# fq_f_fq8.__unnamed.5 (imaginary)
 259      89003A02 
 260 0158 F4000000 		ldu	%s57,244(0,%fp)	# fq_f_fq8.__unnamed.4 (real)
 260      89003902 
 261 0160 FC000000 		ldu	%s56,252(0,%fp)	# fq_f_fq8.__unnamed.4 (imaginary)
 261      89003802 
 262              	# line 6
   6:/usr/uhome/aurora/4gi/nlabhpg/kruus/vt/src/asm-examples/bug-fq_fn_fq8.c **** 	printf(" fq_f_fq8: 1st arg=(%f,%f), 2nd arg=(%f,%f), 3rd arg=(%f,%f), 4th arg=(%f,%f)\n"
 263              		.loc	1 6 0
 264 0168 00000000 		lea	%s55,.LP.__string.0@GOTOFF_LO
 264      00003706 
 265 0170 00000000 		and	%s55,%s55,(32)0
 265      60B73744 
 266 0178 00000000 		lea.sl	%s55,.LP.__string.0@GOTOFF_HI(%s55,%got)
 266      8FB7B706 
 267 0180 F8FFFFFF 		st	%s62,-8(,%fp)	# spill
 267      89003E11 
 268 0188 F0FFFFFF 		st	%s63,-16(,%fp)	# spill
 268      89003F11 
 269 0190 E8FFFFFF 		st	%s60,-24(,%fp)	# spill
 269      89003C11 
 270 0198 E0FFFFFF 		st	%s61,-32(,%fp)	# spill
 270      89003D11 
 271 01a0 D8FFFFFF 		st	%s58,-40(,%fp)	# spill
 271      89003A11 
 272 01a8 D0FFFFFF 		st	%s59,-48(,%fp)	# spill
 272      89003B11 
 273 01b0 C8FFFFFF 		st	%s56,-56(,%fp)	# spill
 273      89003811 
 274 01b8 C0FFFFFF 		st	%s57,-64(,%fp)	# spill
 274      89003911 
 275 01c0 B8FFFFFF 		st	%s7,-72(,%fp)	# spill
 275      89000711 
 276 01c8 B0FFFFFF 		st	%s6,-80(,%fp)	# spill
 276      89000611 
 277 01d0 A8FFFFFF 		st	%s5,-88(,%fp)	# spill
 277      89000511 
 278 01d8 A0FFFFFF 		st	%s4,-96(,%fp)	# spill
 278      89000411 
 279 01e0 98FFFFFF 		st	%s3,-104(,%fp)	# spill
 279      89000311 
 280 01e8 90FFFFFF 		st	%s2,-112(,%fp)	# spill
 280      89000211 
 281 01f0 88FFFFFF 		st	%s1,-120(,%fp)	# spill
 281      89000111 
 282 01f8 80FFFFFF 		st	%s0,-128(,%fp)	# spill
 282      89000011 
 283 0200 78FFFFFF 		st	%s55,-136(,%fp)	# spill
 283      89003711 
 284 0208 00000000 		lea	%s12,crealf@PLT_LO(-24)
 284      00680C06 
 285 0210 00000000 		and	%s12,%s12,(32)0
 285      608C0C44 
 286 0218 00000000 		sic	%lr
 286      00000A28 
 287 0220 00000000 		lea.sl	%s12,crealf@PLT_HI(%s12,%lr)
 287      8A8C8C06 
 288 0228 00000000 		bsic	%lr,(,%s12)		# crealf
 288      8C000A08 
 289              	.L_1.20:
 290 0230 00000000 		cvt.d.s %s63,%s0
 290      00803F0F 
 291 0238 80FFFFFF 		ld	%s0,-128(,%fp)	# restore
 291      89000001 
 292 0240 88FFFFFF 		ld	%s1,-120(,%fp)	# restore
 292      89000101 
 293 0248 70FFFFFF 		st	%s63,-144(,%fp)	# spill
 293      89003F11 
 294 0250 88FFFFFF 		st	%s1,-120(,%fp)	# spill
 294      89000111 
 295 0258 80FFFFFF 		st	%s0,-128(,%fp)	# spill
 295      89000011 
 296 0260 00000000 		lea	%s12,cimagf@PLT_LO(-24)
 296      00680C06 
 297 0268 00000000 		and	%s12,%s12,(32)0
 297      608C0C44 
 298 0270 00000000 		sic	%lr
 298      00000A28 
 299 0278 00000000 		lea.sl	%s12,cimagf@PLT_HI(%s12,%lr)
 299      8A8C8C06 
 300 0280 00000000 		bsic	%lr,(,%s12)		# cimagf
 300      8C000A08 
 301              	.L_1.19:
 302 0288 00000000 		cvt.d.s %s63,%s0
 302      00803F0F 
 303 0290 90FFFFFF 		ld	%s0,-112(,%fp)	# restore
 303      89000001 
 304 0298 98FFFFFF 		ld	%s1,-104(,%fp)	# restore
 304      89000101 
 305 02a0 68FFFFFF 		st	%s63,-152(,%fp)	# spill
 305      89003F11 
 306 02a8 98FFFFFF 		st	%s1,-104(,%fp)	# spill
 306      89000111 
 307 02b0 90FFFFFF 		st	%s0,-112(,%fp)	# spill
 307      89000011 
 308 02b8 00000000 		lea	%s12,crealf@PLT_LO(-24)
 308      00680C06 
 309 02c0 00000000 		and	%s12,%s12,(32)0
 309      608C0C44 
 310 02c8 00000000 		sic	%lr
 310      00000A28 
 311 02d0 00000000 		lea.sl	%s12,crealf@PLT_HI(%s12,%lr)
 311      8A8C8C06 
 312 02d8 00000000 		bsic	%lr,(,%s12)		# crealf
 312      8C000A08 
 313              	.L_1.18:
 314 02e0 00000000 		cvt.d.s %s63,%s0
 314      00803F0F 
 315 02e8 90FFFFFF 		ld	%s0,-112(,%fp)	# restore
 315      89000001 
 316 02f0 98FFFFFF 		ld	%s1,-104(,%fp)	# restore
 316      89000101 
 317 02f8 60FFFFFF 		st	%s63,-160(,%fp)	# spill
 317      89003F11 
 318 0300 98FFFFFF 		st	%s1,-104(,%fp)	# spill
 318      89000111 
 319 0308 90FFFFFF 		st	%s0,-112(,%fp)	# spill
 319      89000011 
 320 0310 00000000 		lea	%s12,cimagf@PLT_LO(-24)
 320      00680C06 
 321 0318 00000000 		and	%s12,%s12,(32)0
 321      608C0C44 
 322 0320 00000000 		sic	%lr
 322      00000A28 
 323 0328 00000000 		lea.sl	%s12,cimagf@PLT_HI(%s12,%lr)
 323      8A8C8C06 
 324 0330 00000000 		bsic	%lr,(,%s12)		# cimagf
 324      8C000A08 
 325              	.L_1.17:
 326 0338 00000000 		cvt.d.s %s63,%s0
 326      00803F0F 
 327 0340 A0FFFFFF 		ld	%s0,-96(,%fp)	# restore
 327      89000001 
 328 0348 A8FFFFFF 		ld	%s1,-88(,%fp)	# restore
 328      89000101 
 329 0350 58FFFFFF 		st	%s63,-168(,%fp)	# spill
 329      89003F11 
 330 0358 A8FFFFFF 		st	%s1,-88(,%fp)	# spill
 330      89000111 
 331 0360 A0FFFFFF 		st	%s0,-96(,%fp)	# spill
 331      89000011 
 332 0368 00000000 		lea	%s12,crealf@PLT_LO(-24)
 332      00680C06 
 333 0370 00000000 		and	%s12,%s12,(32)0
 333      608C0C44 
 334 0378 00000000 		sic	%lr
 334      00000A28 
 335 0380 00000000 		lea.sl	%s12,crealf@PLT_HI(%s12,%lr)
 335      8A8C8C06 
 336 0388 00000000 		bsic	%lr,(,%s12)		# crealf
 336      8C000A08 
 337              	.L_1.16:
 338 0390 00000000 		cvt.d.s %s63,%s0
 338      00803F0F 
 339 0398 A0FFFFFF 		ld	%s0,-96(,%fp)	# restore
 339      89000001 
 340 03a0 A8FFFFFF 		ld	%s1,-88(,%fp)	# restore
 340      89000101 
 341 03a8 50FFFFFF 		st	%s63,-176(,%fp)	# spill
 341      89003F11 
 342 03b0 A8FFFFFF 		st	%s1,-88(,%fp)	# spill
 342      89000111 
 343 03b8 A0FFFFFF 		st	%s0,-96(,%fp)	# spill
 343      89000011 
 344 03c0 00000000 		lea	%s12,cimagf@PLT_LO(-24)
 344      00680C06 
 345 03c8 00000000 		and	%s12,%s12,(32)0
 345      608C0C44 
 346 03d0 00000000 		sic	%lr
 346      00000A28 
 347 03d8 00000000 		lea.sl	%s12,cimagf@PLT_HI(%s12,%lr)
 347      8A8C8C06 
 348 03e0 00000000 		bsic	%lr,(,%s12)		# cimagf
 348      8C000A08 
 349              	.L_1.15:
 350 03e8 00000000 		cvt.d.s %s63,%s0
 350      00803F0F 
 351 03f0 B0FFFFFF 		ld	%s0,-80(,%fp)	# restore
 351      89000001 
 352 03f8 B8FFFFFF 		ld	%s1,-72(,%fp)	# restore
 352      89000101 
 353 0400 48FFFFFF 		st	%s63,-184(,%fp)	# spill
 353      89003F11 
 354 0408 B8FFFFFF 		st	%s1,-72(,%fp)	# spill
 354      89000111 
 355 0410 B0FFFFFF 		st	%s0,-80(,%fp)	# spill
 355      89000011 
 356 0418 00000000 		lea	%s12,crealf@PLT_LO(-24)
 356      00680C06 
 357 0420 00000000 		and	%s12,%s12,(32)0
 357      608C0C44 
 358 0428 00000000 		sic	%lr
 358      00000A28 
 359 0430 00000000 		lea.sl	%s12,crealf@PLT_HI(%s12,%lr)
 359      8A8C8C06 
 360 0438 00000000 		bsic	%lr,(,%s12)		# crealf
 360      8C000A08 
 361              	.L_1.14:
 362 0440 00000000 		cvt.d.s %s63,%s0
 362      00803F0F 
 363 0448 B0FFFFFF 		ld	%s0,-80(,%fp)	# restore
 363      89000001 
 364 0450 B8FFFFFF 		ld	%s1,-72(,%fp)	# restore
 364      89000101 
 365 0458 40FFFFFF 		st	%s63,-192(,%fp)	# spill
 365      89003F11 
 366 0460 B8FFFFFF 		st	%s1,-72(,%fp)	# spill
 366      89000111 
 367 0468 B0FFFFFF 		st	%s0,-80(,%fp)	# spill
 367      89000011 
 368 0470 00000000 		lea	%s12,cimagf@PLT_LO(-24)
 368      00680C06 
 369 0478 00000000 		and	%s12,%s12,(32)0
 369      608C0C44 
 370 0480 00000000 		sic	%lr
 370      00000A28 
 371 0488 00000000 		lea.sl	%s12,cimagf@PLT_HI(%s12,%lr)
 371      8A8C8C06 
 372 0490 00000000 		bsic	%lr,(,%s12)		# cimagf
 372      8C000A08 
 373              	.L_1.13:
 374 0498 00000000 		cvt.d.s %s63,%s0
 374      00803F0F 
 375 04a0 C0FFFFFF 		ld	%s0,-64(,%fp)	# restore
 375      89000001 
 376 04a8 C8FFFFFF 		ld	%s1,-56(,%fp)	# restore
 376      89000101 
 377 04b0 38FFFFFF 		st	%s63,-200(,%fp)	# spill
 377      89003F11 
 378 04b8 C8FFFFFF 		st	%s1,-56(,%fp)	# spill
 378      89000111 
 379 04c0 C0FFFFFF 		st	%s0,-64(,%fp)	# spill
 379      89000011 
 380 04c8 00000000 		lea	%s12,crealf@PLT_LO(-24)
 380      00680C06 
 381 04d0 00000000 		and	%s12,%s12,(32)0
 381      608C0C44 
 382 04d8 00000000 		sic	%lr
 382      00000A28 
 383 04e0 00000000 		lea.sl	%s12,crealf@PLT_HI(%s12,%lr)
 383      8A8C8C06 
 384 04e8 00000000 		bsic	%lr,(,%s12)		# crealf
 384      8C000A08 
 385              	.L_1.12:
 386 04f0 00000000 		cvt.d.s %s63,%s0
 386      00803F0F 
 387 04f8 C0FFFFFF 		ld	%s0,-64(,%fp)	# restore
 387      89000001 
 388 0500 C8FFFFFF 		ld	%s1,-56(,%fp)	# restore
 388      89000101 
 389 0508 30FFFFFF 		st	%s63,-208(,%fp)	# spill
 389      89003F11 
 390 0510 C8FFFFFF 		st	%s1,-56(,%fp)	# spill
 390      89000111 
 391 0518 C0FFFFFF 		st	%s0,-64(,%fp)	# spill
 391      89000011 
 392 0520 00000000 		lea	%s12,cimagf@PLT_LO(-24)
 392      00680C06 
 393 0528 00000000 		and	%s12,%s12,(32)0
 393      608C0C44 
 394 0530 00000000 		sic	%lr
 394      00000A28 
 395 0538 00000000 		lea.sl	%s12,cimagf@PLT_HI(%s12,%lr)
 395      8A8C8C06 
 396 0540 00000000 		bsic	%lr,(,%s12)		# cimagf
 396      8C000A08 
 397              	.L_1.11:
 398 0548 00000000 		cvt.d.s %s63,%s0
 398      00803F0F 
 399 0550 D0FFFFFF 		ld	%s0,-48(,%fp)	# restore
 399      89000001 
 400 0558 D8FFFFFF 		ld	%s1,-40(,%fp)	# restore
 400      89000101 
 401 0560 28FFFFFF 		st	%s63,-216(,%fp)	# spill
 401      89003F11 
 402 0568 D8FFFFFF 		st	%s1,-40(,%fp)	# spill
 402      89000111 
 403 0570 D0FFFFFF 		st	%s0,-48(,%fp)	# spill
 403      89000011 
 404 0578 00000000 		lea	%s12,crealf@PLT_LO(-24)
 404      00680C06 
 405 0580 00000000 		and	%s12,%s12,(32)0
 405      608C0C44 
 406 0588 00000000 		sic	%lr
 406      00000A28 
 407 0590 00000000 		lea.sl	%s12,crealf@PLT_HI(%s12,%lr)
 407      8A8C8C06 
 408 0598 00000000 		bsic	%lr,(,%s12)		# crealf
 408      8C000A08 
 409              	.L_1.10:
 410 05a0 00000000 		cvt.d.s %s63,%s0
 410      00803F0F 
 411 05a8 D0FFFFFF 		ld	%s0,-48(,%fp)	# restore
 411      89000001 
 412 05b0 D8FFFFFF 		ld	%s1,-40(,%fp)	# restore
 412      89000101 
 413 05b8 20FFFFFF 		st	%s63,-224(,%fp)	# spill
 413      89003F11 
 414 05c0 D8FFFFFF 		st	%s1,-40(,%fp)	# spill
 414      89000111 
 415 05c8 D0FFFFFF 		st	%s0,-48(,%fp)	# spill
 415      89000011 
 416 05d0 00000000 		lea	%s12,cimagf@PLT_LO(-24)
 416      00680C06 
 417 05d8 00000000 		and	%s12,%s12,(32)0
 417      608C0C44 
 418 05e0 00000000 		sic	%lr
 418      00000A28 
 419 05e8 00000000 		lea.sl	%s12,cimagf@PLT_HI(%s12,%lr)
 419      8A8C8C06 
 420 05f0 00000000 		bsic	%lr,(,%s12)		# cimagf
 420      8C000A08 
 421              	.L_1.9:
 422 05f8 00000000 		cvt.d.s %s63,%s0
 422      00803F0F 
 423 0600 E0FFFFFF 		ld	%s0,-32(,%fp)	# restore
 423      89000001 
 424 0608 E8FFFFFF 		ld	%s1,-24(,%fp)	# restore
 424      89000101 
 425 0610 18FFFFFF 		st	%s63,-232(,%fp)	# spill
 425      89003F11 
 426 0618 E8FFFFFF 		st	%s1,-24(,%fp)	# spill
 426      89000111 
 427 0620 E0FFFFFF 		st	%s0,-32(,%fp)	# spill
 427      89000011 
 428 0628 00000000 		lea	%s12,crealf@PLT_LO(-24)
 428      00680C06 
 429 0630 00000000 		and	%s12,%s12,(32)0
 429      608C0C44 
 430 0638 00000000 		sic	%lr
 430      00000A28 
 431 0640 00000000 		lea.sl	%s12,crealf@PLT_HI(%s12,%lr)
 431      8A8C8C06 
 432 0648 00000000 		bsic	%lr,(,%s12)		# crealf
 432      8C000A08 
 433              	.L_1.8:
 434 0650 00000000 		cvt.d.s %s63,%s0
 434      00803F0F 
 435 0658 E0FFFFFF 		ld	%s0,-32(,%fp)	# restore
 435      89000001 
 436 0660 E8FFFFFF 		ld	%s1,-24(,%fp)	# restore
 436      89000101 
 437 0668 10FFFFFF 		st	%s63,-240(,%fp)	# spill
 437      89003F11 
 438 0670 E8FFFFFF 		st	%s1,-24(,%fp)	# spill
 438      89000111 
 439 0678 E0FFFFFF 		st	%s0,-32(,%fp)	# spill
 439      89000011 
 440 0680 00000000 		lea	%s12,cimagf@PLT_LO(-24)
 440      00680C06 
 441 0688 00000000 		and	%s12,%s12,(32)0
 441      608C0C44 
 442 0690 00000000 		sic	%lr
 442      00000A28 
 443 0698 00000000 		lea.sl	%s12,cimagf@PLT_HI(%s12,%lr)
 443      8A8C8C06 
 444 06a0 00000000 		bsic	%lr,(,%s12)		# cimagf
 444      8C000A08 
 445              	.L_1.7:
 446 06a8 00000000 		cvt.d.s %s63,%s0
 446      00803F0F 
 447 06b0 F0FFFFFF 		ld	%s0,-16(,%fp)	# restore
 447      89000001 
 448 06b8 F8FFFFFF 		ld	%s1,-8(,%fp)	# restore
 448      89000101 
 449 06c0 08FFFFFF 		st	%s63,-248(,%fp)	# spill
 449      89003F11 
 450 06c8 F8FFFFFF 		st	%s1,-8(,%fp)	# spill
 450      89000111 
 451 06d0 F0FFFFFF 		st	%s0,-16(,%fp)	# spill
 451      89000011 
 452 06d8 00000000 		lea	%s12,crealf@PLT_LO(-24)
 452      00680C06 
 453 06e0 00000000 		and	%s12,%s12,(32)0
 453      608C0C44 
 454 06e8 00000000 		sic	%lr
 454      00000A28 
 455 06f0 00000000 		lea.sl	%s12,crealf@PLT_HI(%s12,%lr)
 455      8A8C8C06 
 456 06f8 00000000 		bsic	%lr,(,%s12)		# crealf
 456      8C000A08 
 457              	.L_1.6:
 458 0700 00000000 		cvt.d.s %s63,%s0
 458      00803F0F 
 459 0708 F0FFFFFF 		ld	%s0,-16(,%fp)	# restore
 459      89000001 
 460 0710 F8FFFFFF 		ld	%s1,-8(,%fp)	# restore
 460      89000101 
 461 0718 00FFFFFF 		st	%s63,-256(,%fp)	# spill
 461      89003F11 
 462 0720 F8FFFFFF 		st	%s1,-8(,%fp)	# spill
 462      89000111 
 463 0728 F0FFFFFF 		st	%s0,-16(,%fp)	# spill
 463      89000011 
 464 0730 00000000 		lea	%s12,cimagf@PLT_LO(-24)
 464      00680C06 
 465 0738 00000000 		and	%s12,%s12,(32)0
 465      608C0C44 
 466 0740 00000000 		sic	%lr
 466      00000A28 
 467 0748 00000000 		lea.sl	%s12,cimagf@PLT_HI(%s12,%lr)
 467      8A8C8C06 
 468 0750 00000000 		bsic	%lr,(,%s12)		# cimagf
 468      8C000A08 
 469              	.L_1.5:
 470 0758 00000000 		cvt.d.s %s63,%s0
 470      00803F0F 
 471 0760 30010000 		st	%s63,304(0,%sp)
 471      8B003F11 
 472 0768 78FFFFFF 		ld	%s62,-136(,%fp)	# restore
 472      89003E01 
 473 0770 B0000000 		st	%s62,176(0,%sp)
 473      8B003E11 
 474 0778 70FFFFFF 		ld	%s61,-144(,%fp)	# restore
 474      89003D01 
 475 0780 B8000000 		st	%s61,184(0,%sp)
 475      8B003D11 
 476 0788 68FFFFFF 		ld	%s60,-152(,%fp)	# restore
 476      89003C01 
 477 0790 C0000000 		st	%s60,192(0,%sp)
 477      8B003C11 
 478 0798 60FFFFFF 		ld	%s59,-160(,%fp)	# restore
 478      89003B01 
 479 07a0 C8000000 		st	%s59,200(0,%sp)
 479      8B003B11 
 480 07a8 58FFFFFF 		ld	%s58,-168(,%fp)	# restore
 480      89003A01 
 481 07b0 D0000000 		st	%s58,208(0,%sp)
 481      8B003A11 
 482 07b8 50FFFFFF 		ld	%s57,-176(,%fp)	# restore
 482      89003901 
 483 07c0 D8000000 		st	%s57,216(0,%sp)
 483      8B003911 
 484 07c8 48FFFFFF 		ld	%s56,-184(,%fp)	# restore
 484      89003801 
 485 07d0 E0000000 		st	%s56,224(0,%sp)
 485      8B003811 
 486 07d8 40FFFFFF 		ld	%s55,-192(,%fp)	# restore
 486      89003701 
 487 07e0 E8000000 		st	%s55,232(0,%sp)
 487      8B003711 
 488 07e8 38FFFFFF 		ld	%s54,-200(,%fp)	# restore
 488      89003601 
 489 07f0 F0000000 		st	%s54,240(0,%sp)
 489      8B003611 
 490 07f8 30FFFFFF 		ld	%s53,-208(,%fp)	# restore
 490      89003501 
 491 0800 F8000000 		st	%s53,248(0,%sp)
 491      8B003511 
 492 0808 28FFFFFF 		ld	%s52,-216(,%fp)	# restore
 492      89003401 
 493 0810 00010000 		st	%s52,256(0,%sp)
 493      8B003411 
 494 0818 20FFFFFF 		ld	%s51,-224(,%fp)	# restore
 494      89003301 
 495 0820 08010000 		st	%s51,264(0,%sp)
 495      8B003311 
 496 0828 18FFFFFF 		ld	%s50,-232(,%fp)	# restore
 496      89003201 
 497 0830 10010000 		st	%s50,272(0,%sp)
 497      8B003211 
 498 0838 10FFFFFF 		ld	%s49,-240(,%fp)	# restore
 498      89003101 
 499 0840 18010000 		st	%s49,280(0,%sp)
 499      8B003111 
 500 0848 08FFFFFF 		ld	%s48,-248(,%fp)	# restore
 500      89003001 
 501 0850 20010000 		st	%s48,288(0,%sp)
 501      8B003011 
 502 0858 00FFFFFF 		ld	%s47,-256(,%fp)	# restore
 502      89002F01 
 503 0860 28010000 		st	%s47,296(0,%sp)
 503      8B002F11 
 504 0868 00000000 		or	%s0,0,%s62
 504      BE000045 
 505 0870 00000000 		or	%s1,0,%s61
 505      BD000145 
 506 0878 00000000 		or	%s2,0,%s60
 506      BC000245 
 507 0880 00000000 		or	%s3,0,%s59
 507      BB000345 
 508 0888 00000000 		or	%s4,0,%s58
 508      BA000445 
 509 0890 00000000 		or	%s5,0,%s57
 509      B9000545 
 510 0898 00000000 		or	%s6,0,%s56
 510      B8000645 
 511 08a0 00000000 		or	%s7,0,%s55
 511      B7000745 
 512 08a8 00000000 		lea	%s12,printf@PLT_LO(-24)
 512      00680C06 
 513 08b0 00000000 		and	%s12,%s12,(32)0
 513      608C0C44 
 514 08b8 00000000 		sic	%lr
 514      00000A28 
 515 08c0 00000000 		lea.sl	%s12,printf@PLT_HI(%s12,%lr)
 515      8A8C8C06 
 516 08c8 00000000 		bsic	%lr,(,%s12)		# printf
 516      8C000A08 
 517              	.L_1.4:
 518              	# line 16
   7:/usr/uhome/aurora/4gi/nlabhpg/kruus/vt/src/asm-examples/bug-fq_fn_fq8.c **** 	       "           5th arg=(%f,%f), 6th arg=(%f,%f), 7th arg=(%f,%f), 8th arg=(%f,%f)\n",
   8:/usr/uhome/aurora/4gi/nlabhpg/kruus/vt/src/asm-examples/bug-fq_fn_fq8.c **** 			(double)crealf(a), (double)cimagf(a),
   9:/usr/uhome/aurora/4gi/nlabhpg/kruus/vt/src/asm-examples/bug-fq_fn_fq8.c **** 			(double)crealf(b), (double)cimagf(b),
  10:/usr/uhome/aurora/4gi/nlabhpg/kruus/vt/src/asm-examples/bug-fq_fn_fq8.c **** 			(double)crealf(c), (double)cimagf(c),
  11:/usr/uhome/aurora/4gi/nlabhpg/kruus/vt/src/asm-examples/bug-fq_fn_fq8.c **** 			(double)crealf(d), (double)cimagf(d),
  12:/usr/uhome/aurora/4gi/nlabhpg/kruus/vt/src/asm-examples/bug-fq_fn_fq8.c **** 			(double)crealf(e), (double)cimagf(e),
  13:/usr/uhome/aurora/4gi/nlabhpg/kruus/vt/src/asm-examples/bug-fq_fn_fq8.c **** 			(double)crealf(f), (double)cimagf(f),
  14:/usr/uhome/aurora/4gi/nlabhpg/kruus/vt/src/asm-examples/bug-fq_fn_fq8.c **** 			(double)crealf(g), (double)cimagf(g),
  15:/usr/uhome/aurora/4gi/nlabhpg/kruus/vt/src/asm-examples/bug-fq_fn_fq8.c **** 			(double)crealf(h), (double)cimagf(h) );
  16:/usr/uhome/aurora/4gi/nlabhpg/kruus/vt/src/asm-examples/bug-fq_fn_fq8.c **** 	float complex sum = a+b+c+d+e+f+g+h;
 519              		.loc	1 16 0
 520 08d0 80FFFFFF 		ld	%s63,-128(,%fp)	# restore
 520      89003F01 
 521 08d8 90FFFFFF 		ld	%s62,-112(,%fp)	# restore
 521      89003E01 
 522 08e0 00000000 		fadd.s	%s61,%s63,%s62
 522      BEBFBD4C 
 523 08e8 88FFFFFF 		ld	%s60,-120(,%fp)	# restore
 523      89003C01 
 524 08f0 98FFFFFF 		ld	%s59,-104(,%fp)	# restore
 524      89003B01 
 525 08f8 00000000 		fadd.s	%s58,%s60,%s59
 525      BBBCBA4C 
 526 0900 A0FFFFFF 		ld	%s57,-96(,%fp)	# restore
 526      89003901 
 527 0908 00000000 		fadd.s	%s56,%s57,%s61
 527      BDB9B84C 
 528 0910 A8FFFFFF 		ld	%s55,-88(,%fp)	# restore
 528      89003701 
 529 0918 00000000 		fadd.s	%s54,%s55,%s58
 529      BAB7B64C 
 530 0920 B0FFFFFF 		ld	%s53,-80(,%fp)	# restore
 530      89003501 
 531 0928 00000000 		fadd.s	%s52,%s53,%s56
 531      B8B5B44C 
 532 0930 B8FFFFFF 		ld	%s51,-72(,%fp)	# restore
 532      89003301 
 533 0938 00000000 		fadd.s	%s50,%s51,%s54
 533      B6B3B24C 
 534 0940 C0FFFFFF 		ld	%s49,-64(,%fp)	# restore
 534      89003101 
 535 0948 00000000 		fadd.s	%s48,%s49,%s52
 535      B4B1B04C 
 536 0950 C8FFFFFF 		ld	%s47,-56(,%fp)	# restore
 536      89002F01 
 537 0958 00000000 		fadd.s	%s46,%s47,%s50
 537      B2AFAE4C 
 538 0960 D0FFFFFF 		ld	%s45,-48(,%fp)	# restore
 538      89002D01 
 539 0968 00000000 		fadd.s	%s44,%s45,%s48
 539      B0ADAC4C 
 540 0970 D8FFFFFF 		ld	%s43,-40(,%fp)	# restore
 540      89002B01 
 541 0978 00000000 		fadd.s	%s42,%s43,%s46
 541      AEABAA4C 
 542 0980 E0FFFFFF 		ld	%s41,-32(,%fp)	# restore
 542      89002901 
 543 0988 00000000 		fadd.s	%s40,%s41,%s44
 543      ACA9A84C 
 544 0990 E8FFFFFF 		ld	%s39,-24(,%fp)	# restore
 544      89002701 
 545 0998 00000000 		fadd.s	%s38,%s39,%s42
 545      AAA7A64C 
 546 09a0 F0FFFFFF 		ld	%s37,-16(,%fp)	# restore
 546      89002501 
 547 09a8 00000000 		fadd.s	%s36,%s37,%s40
 547      A8A5A44C 
 548 09b0 F8FFFFFF 		ld	%s35,-8(,%fp)	# restore
 548      89002301 
 549 09b8 00000000 		fadd.s	%s34,%s35,%s38
 549      A6A3A24C 
 550              	# line 17
  17:/usr/uhome/aurora/4gi/nlabhpg/kruus/vt/src/asm-examples/bug-fq_fn_fq8.c **** 	printf(" fq_f_fq8: sum=(%f,%f)\n", (double)crealf(sum), (double)cimagf(sum));
 551              		.loc	1 17 0
 552 09c0 00000000 		lea	%s18,.LP.__string.1@GOTOFF_LO
 552      00001206 
 553 09c8 00000000 		and	%s18,%s18,(32)0
 553      60921244 
 554 09d0 00000000 		lea.sl	%s18,.LP.__string.1@GOTOFF_HI(%s18,%got)
 554      8F929206 
 555 09d8 00000000 		or	%s0,0,%s36
 555      A4000045 
 556 09e0 00000000 		or	%s1,0,%s34
 556      A2000145 
 557 09e8 F8FEFFFF 		st	%s1,-264(,%fp)	# spill
 557      89000111 
 558 09f0 F0FEFFFF 		st	%s0,-272(,%fp)	# spill
 558      89000011 
 559 09f8 00000000 		lea	%s12,crealf@PLT_LO(-24)
 559      00680C06 
 560 0a00 00000000 		and	%s12,%s12,(32)0
 560      608C0C44 
 561 0a08 00000000 		sic	%lr
 561      00000A28 
 562 0a10 00000000 		lea.sl	%s12,crealf@PLT_HI(%s12,%lr)
 562      8A8C8C06 
 563 0a18 00000000 		bsic	%lr,(,%s12)		# crealf
 563      8C000A08 
 564              	.L_1.3:
 565 0a20 00000000 		cvt.d.s %s63,%s0
 565      00803F0F 
 566 0a28 F0FEFFFF 		ld	%s0,-272(,%fp)	# restore
 566      89000001 
 567 0a30 F8FEFFFF 		ld	%s1,-264(,%fp)	# restore
 567      89000101 
 568 0a38 E8FEFFFF 		st	%s63,-280(,%fp)	# spill
 568      89003F11 
 569 0a40 F8FEFFFF 		st	%s1,-264(,%fp)	# spill
 569      89000111 
 570 0a48 F0FEFFFF 		st	%s0,-272(,%fp)	# spill
 570      89000011 
 571 0a50 00000000 		lea	%s12,cimagf@PLT_LO(-24)
 571      00680C06 
 572 0a58 00000000 		and	%s12,%s12,(32)0
 572      608C0C44 
 573 0a60 00000000 		sic	%lr
 573      00000A28 
 574 0a68 00000000 		lea.sl	%s12,cimagf@PLT_HI(%s12,%lr)
 574      8A8C8C06 
 575 0a70 00000000 		bsic	%lr,(,%s12)		# cimagf
 575      8C000A08 
 576              	.L_1.2:
 577 0a78 00000000 		cvt.d.s %s63,%s0
 577      00803F0F 
 578 0a80 C0000000 		st	%s63,192(0,%sp)
 578      8B003F11 
 579 0a88 B0000000 		st	%s18,176(0,%sp)
 579      8B001211 
 580 0a90 E8FEFFFF 		ld	%s62,-280(,%fp)	# restore
 580      89003E01 
 581 0a98 B8000000 		st	%s62,184(0,%sp)
 581      8B003E11 
 582 0aa0 00000000 		or	%s0,0,%s18
 582      92000045 
 583 0aa8 00000000 		or	%s1,0,%s62
 583      BE000145 
 584 0ab0 00000000 		or	%s2,0,%s63
 584      BF000245 
 585 0ab8 00000000 		lea	%s12,printf@PLT_LO(-24)
 585      00680C06 
 586 0ac0 00000000 		and	%s12,%s12,(32)0
 586      608C0C44 
 587 0ac8 00000000 		sic	%lr
 587      00000A28 
 588 0ad0 00000000 		lea.sl	%s12,printf@PLT_HI(%s12,%lr)
 588      8A8C8C06 
 589 0ad8 00000000 		bsic	%lr,(,%s12)		# printf
 589      8C000A08 
 590 0ae0 08000000 		br.l	.L_1.1
 590      00000F18 
 591              	.L_1.1:
 592              	# line 18
  18:/usr/uhome/aurora/4gi/nlabhpg/kruus/vt/src/asm-examples/bug-fq_fn_fq8.c **** 	return sum;
 593              		.loc	1 18 0
 594 0ae8 F0FEFFFF 		ld	%s0,-272(,%fp)	# restore
 594      89000001 
 595 0af0 F8FEFFFF 		ld	%s1,-264(,%fp)	# restore
 595      89000101 
 596              	# Start of epilogue codes
 597 0af8 30000000 		ld	%s18,48(,%fp)
 597      89001201 
 598 0b00 00000000 		or	%sp,0,%fp
 598      89000B45 
 599              		.cfi_def_cfa	11,8
 600 0b08 18000000 		ld	%got,0x18(,%sp)
 600      8B000F01 
 601 0b10 20000000 		ld	%plt,0x20(,%sp)
 601      8B001001 
 602 0b18 08000000 		ld	%lr,0x8(,%sp)
 602      8B000A01 
 603 0b20 00000000 		ld	%fp,0x0(,%sp)
 603      8B000901 
 604 0b28 00000000 		b.l	(,%lr)
 604      8A000F19 
 605              	.L_1.EoE:
 606              		.cfi_endproc
 607              		.set	.L.1.2auto_size,	0xfffffffffffffb90	# 1136 Bytes
 609              	# ============ End  fq_f_fq8 ============
 610              	# ============ Begin  main ============
 611              		.section .rodata
 612 00b8 00000000 		.balign 16
 612      00000000 
 614              	.LP.__string.2:
 615 00c0 20       		.byte	32
 616 00c1 73       		.byte	115
 617 00c2 75       		.byte	117
 618 00c3 6D       		.byte	109
 619 00c4 2C       		.byte	44
 620 00c5 20       		.byte	32
 621 00c6 6E       		.byte	110
 622 00c7 6F       		.byte	111
 623 00c8 20       		.byte	32
 624 00c9 20       		.byte	32
 625 00ca 66       		.byte	102
 626 00cb 75       		.byte	117
 627 00cc 6E       		.byte	110
 628 00cd 63       		.byte	99
 629 00ce 74       		.byte	116
 630 00cf 69       		.byte	105
 631 00d0 6F       		.byte	111
 632 00d1 6E       		.byte	110
 633 00d2 20       		.byte	32
 634 00d3 63       		.byte	99
 635 00d4 61       		.byte	97
 636 00d5 6C       		.byte	108
 637 00d6 6C       		.byte	108
 638 00d7 20       		.byte	32
 639 00d8 3A       		.byte	58
 640 00d9 20       		.byte	32
 641 00da 28       		.byte	40
 642 00db 25       		.byte	37
 643 00dc 66       		.byte	102
 644 00dd 2C       		.byte	44
 645 00de 25       		.byte	37
 646 00df 66       		.byte	102
 647 00e0 29       		.byte	41
 648 00e1 0A       		.byte	10
 649 00e2 00       		.zero	1
 650 00e3 00000000 		.balign 8
 650      00
 652              	.LP.__string.3:
 653 00e8 20       		.byte	32
 654 00e9 73       		.byte	115
 655 00ea 75       		.byte	117
 656 00eb 6D       		.byte	109
 657 00ec 2C       		.byte	44
 658 00ed 20       		.byte	32
 659 00ee 76       		.byte	118
 660 00ef 69       		.byte	105
 661 00f0 61       		.byte	97
 662 00f1 20       		.byte	32
 663 00f2 66       		.byte	102
 664 00f3 75       		.byte	117
 665 00f4 6E       		.byte	110
 666 00f5 63       		.byte	99
 667 00f6 74       		.byte	116
 668 00f7 69       		.byte	105
 669 00f8 6F       		.byte	111
 670 00f9 6E       		.byte	110
 671 00fa 20       		.byte	32
 672 00fb 63       		.byte	99
 673 00fc 61       		.byte	97
 674 00fd 6C       		.byte	108
 675 00fe 6C       		.byte	108
 676 00ff 20       		.byte	32
 677 0100 3A       		.byte	58
 678 0101 20       		.byte	32
 679 0102 28       		.byte	40
 680 0103 25       		.byte	37
 681 0104 66       		.byte	102
 682 0105 2C       		.byte	44
 683 0106 25       		.byte	37
 684 0107 66       		.byte	102
 685 0108 29       		.byte	41
 686 0109 0A       		.byte	10
 687 010a 00       		.zero	1
 688 010b 00000000 		.balign 8
 688      00
 690              	.LP.__string.4:
 691 0110 47       		.byte	71
 692 0111 6F       		.byte	111
 693 0112 6F       		.byte	111
 694 0113 64       		.byte	100
 695 0114 62       		.byte	98
 696 0115 79       		.byte	121
 697 0116 65       		.byte	101
 698 0117 0A       		.byte	10
 699 0118 00       		.zero	1
 700              		.text
 701              		.balign 16
 702              	.L_2.0:
 703              	# line 20
  19:/usr/uhome/aurora/4gi/nlabhpg/kruus/vt/src/asm-examples/bug-fq_fn_fq8.c **** }
  20:/usr/uhome/aurora/4gi/nlabhpg/kruus/vt/src/asm-examples/bug-fq_fn_fq8.c **** int main(int argc,char**argv){
 704              		.loc	1 20 0
 705              		.globl	main
 707              	main:
 708              		.cfi_startproc
 709 0b30 00000000 		st	%fp,0x0(,%sp)
 709      8B000911 
 710              		.cfi_def_cfa_offset	0
 711              		.cfi_offset	9,0
 712 0b38 08000000 		st	%lr,0x8(,%sp)
 712      8B000A11 
 713 0b40 18000000 		st	%got,0x18(,%sp)
 713      8B000F11 
 714 0b48 20000000 		st	%plt,0x20(,%sp)
 714      8B001011 
 715 0b50 00000000 		lea	%got,_GLOBAL_OFFSET_TABLE_@PC_LO(-0x18)
 715      00680F06 
 716 0b58 00000000 		and	%got,%got,(32)0
 716      608F0F44 
 717 0b60 00000000 		sic	%plt
 717      00001028 
 718 0b68 00000000 		lea.sl	%got,_GLOBAL_OFFSET_TABLE_@PC_HI(%plt,%got)
 718      8F908F06 
 719 0b70 00000000 		or	%fp,0,%sp
 719      8B000945 
 720              		.cfi_def_cfa_register	9
 721 0b78 30000000 		st	%s18,48(,%fp)
 721      89001211 
 722 0b80 38000000 		st	%s19,56(,%fp)
 722      89001311 
 723 0b88 40000000 		st	%s20,64(,%fp)
 723      89001411 
 724 0b90 48000000 		st	%s21,72(,%fp)
 724      89001511 
 725 0b98 50000000 		st	%s22,80(,%fp)
 725      89001611 
 726 0ba0 58000000 		st	%s23,88(,%fp)
 726      89001711 
 727 0ba8 60000000 		st	%s24,96(,%fp)
 727      89001811 
 728 0bb0 68000000 		st	%s25,104(,%fp)
 728      89001911 
 729 0bb8 70000000 		st	%s26,112(,%fp)
 729      89001A11 
 730 0bc0 78000000 		st	%s27,120(,%fp)
 730      89001B11 
 731 0bc8 80000000 		st	%s28,128(,%fp)
 731      89001C11 
 732 0bd0 88000000 		st	%s29,136(,%fp)
 732      89001D11 
 733 0bd8 90000000 		st	%s30,144(,%fp)
 733      89001E11 
 734 0be0 98000000 		st	%s31,152(,%fp)
 734      89001F11 
 735 0be8 A0000000 		st	%s32,160(,%fp)
 735      89002011 
 736 0bf0 A8000000 		st	%s33,168(,%fp)
 736      89002111 
 737 0bf8 70FDFFFF 		lea	%s13,.L.2.2auto_size&0xffffffff
 737      00000D06 
 738 0c00 00000000 		and	%s13,%s13,(32)0
 738      608D0D44 
 739 0c08 FFFFFFFF 		lea.sl	%sp,.L.2.2auto_size>>32(%fp,%s13)
 739      8D898B06 
 740 0c10 48000000 		brge.l.t	%sp,%sl,.L_2.EoP
 740      888B3518 
 741 0c18 18000000 		ld	%s61,0x18(,%tp)
 741      8E003D01 
 742 0c20 00000000 		or	%s62,0,%s0
 742      80003E45 
 743 0c28 3B010000 		lea	%s63,0x13b
 743      00003F06 
 744 0c30 00000000 		shm.l	%s63,0x0(%s61)
 744      BD033F31 
 745 0c38 08000000 		shm.l	%sl,0x8(%s61)
 745      BD030831 
 746 0c40 10000000 		shm.l	%sp,0x10(%s61)
 746      BD030B31 
 747 0c48 00000000 		monc
 747      0000003F 
 748 0c50 00000000 		or	%s0,0,%s62
 748      BE000045 
 749              	.L_2.EoP:
 750              	# End of prologue codes
 751              	# line 24
  21:/usr/uhome/aurora/4gi/nlabhpg/kruus/vt/src/asm-examples/bug-fq_fn_fq8.c **** 	float complex fq1=0.1-0.1*I, fq2=0.2-0.2*I, fq3=0.3-0.3*I, fq4=0.4-0.4*I,
  22:/usr/uhome/aurora/4gi/nlabhpg/kruus/vt/src/asm-examples/bug-fq_fn_fq8.c **** 		      fq5=0.5-0.5*I, fq6=0.6-0.6*I, fq7=0.7-0.7*I, fq8=0.8-0.8*I;
  23:/usr/uhome/aurora/4gi/nlabhpg/kruus/vt/src/asm-examples/bug-fq_fn_fq8.c **** 	float complex sum0 = fq1+fq2+fq3+fq4+fq5+fq6+fq7+fq8;
  24:/usr/uhome/aurora/4gi/nlabhpg/kruus/vt/src/asm-examples/bug-fq_fn_fq8.c **** 	float complex sum1 = fq_f_fq8( fq1,fq2,fq3,fq4,fq5,fq6,fq7,fq8 );
 752              		.loc	1 24 0
 753 0c58 CDCCCC3D 		lea.sl	%s63,1036831949
 753      0000BF06 
 754 0c60 CDCCCCBD 		lea.sl	%s62,-1110651699
 754      0000BE06 
 755 0c68 CDCC4C3E 		lea.sl	%s61,1045220557
 755      0000BD06 
 756 0c70 CDCC4CBE 		lea.sl	%s60,-1102263091
 756      0000BC06 
 757 0c78 9A99993E 		lea.sl	%s59,1050253722
 757      0000BB06 
 758 0c80 9A9999BE 		lea.sl	%s58,-1097229926
 758      0000BA06 
 759 0c88 CDCCCC3E 		lea.sl	%s57,1053609165
 759      0000B906 
 760 0c90 CDCCCCBE 		lea.sl	%s56,-1093874483
 760      0000B806 
 761 0c98 0000003F 		lea.sl	%s55,1056964608
 761      0000B706 
 762 0ca0 F0000000 		st	%s55,240(0,%sp)
 762      8B003711 
 763 0ca8 000000BF 		lea.sl	%s54,-1090519040
 763      0000B606 
 764 0cb0 F8000000 		st	%s54,248(0,%sp)
 764      8B003611 
 765 0cb8 9A99193F 		lea.sl	%s53,1058642330
 765      0000B506 
 766 0cc0 00010000 		st	%s53,256(0,%sp)
 766      8B003511 
 767 0cc8 9A9919BF 		lea.sl	%s52,-1088841318
 767      0000B406 
 768 0cd0 08010000 		st	%s52,264(0,%sp)
 768      8B003411 
 769 0cd8 3333333F 		lea.sl	%s51,1060320051
 769      0000B306 
 770 0ce0 10010000 		st	%s51,272(0,%sp)
 770      8B003311 
 771 0ce8 333333BF 		lea.sl	%s50,-1087163597
 771      0000B206 
 772 0cf0 18010000 		st	%s50,280(0,%sp)
 772      8B003211 
 773 0cf8 CDCC4C3F 		lea.sl	%s49,1061997773
 773      0000B106 
 774 0d00 20010000 		st	%s49,288(0,%sp)
 774      8B003111 
 775 0d08 CDCC4CBF 		lea.sl	%s48,-1085485875
 775      0000B006 
 776 0d10 28010000 		st	%s48,296(0,%sp)
 776      8B003011 
 777 0d18 00000000 		or	%s0,0,%s63
 777      BF000045 
 778 0d20 00000000 		or	%s1,0,%s62
 778      BE000145 
 779 0d28 00000000 		or	%s2,0,%s61
 779      BD000245 
 780 0d30 00000000 		or	%s3,0,%s60
 780      BC000345 
 781 0d38 00000000 		or	%s4,0,%s59
 781      BB000445 
 782 0d40 00000000 		or	%s5,0,%s58
 782      BA000545 
 783 0d48 00000000 		or	%s6,0,%s57
 783      B9000645 
 784 0d50 00000000 		or	%s7,0,%s56
 784      B8000745 
 785 0d58 00000000 		lea	%s12,fq_f_fq8@PLT_LO(-24)
 785      00680C06 
 786 0d60 00000000 		and	%s12,%s12,(32)0
 786      608C0C44 
 787 0d68 00000000 		sic	%lr
 787      00000A28 
 788 0d70 00000000 		lea.sl	%s12,fq_f_fq8@PLT_HI(%s12,%lr)
 788      8A8C8C06 
 789 0d78 00000000 		bsic	%lr,(,%s12)		# fq_f_fq8
 789      8C000A08 
 790              	.L_2.8:
 791              	# line 25
  25:/usr/uhome/aurora/4gi/nlabhpg/kruus/vt/src/asm-examples/bug-fq_fn_fq8.c **** 	printf(" sum, no  function call : (%f,%f)\n", crealf(sum0), cimagf(sum0));
 792              		.loc	1 25 0
 793 0d80 00000000 		lea	%s63,.LP.__string.2@GOTOFF_LO
 793      00003F06 
 794 0d88 00000000 		and	%s63,%s63,(32)0
 794      60BF3F44 
 795 0d90 00000000 		lea.sl	%s63,.LP.__string.2@GOTOFF_HI(%s63,%got)
 795      8FBFBF06 
 796 0d98 66666640 		lea.sl	%s62,1080452710
 796      0000BE06 
 797 0da0 666666C0 		lea.sl	%s61,-1067030938
 797      0000BD06 
 798 0da8 F8FFFFFF 		st	%s0,-8(,%fp)	# spill
 798      89000011 
 799 0db0 00000000 		or	%s0,0,%s62
 799      BE000045 
 800 0db8 F0FFFFFF 		st	%s1,-16(,%fp)	# spill
 800      89000111 
 801 0dc0 00000000 		or	%s1,0,%s61
 801      BD000145 
 802 0dc8 E8FFFFFF 		st	%s63,-24(,%fp)	# spill
 802      89003F11 
 803 0dd0 00000000 		lea	%s12,crealf@PLT_LO(-24)
 803      00680C06 
 804 0dd8 00000000 		and	%s12,%s12,(32)0
 804      608C0C44 
 805 0de0 00000000 		sic	%lr
 805      00000A28 
 806 0de8 00000000 		lea.sl	%s12,crealf@PLT_HI(%s12,%lr)
 806      8A8C8C06 
 807 0df0 00000000 		bsic	%lr,(,%s12)		# crealf
 807      8C000A08 
 808              	.L_2.7:
 809 0df8 00000000 		cvt.d.s %s63,%s0
 809      00803F0F 
 810 0e00 66666640 		lea.sl	%s62,1080452710
 810      0000BE06 
 811 0e08 666666C0 		lea.sl	%s61,-1067030938
 811      0000BD06 
 812 0e10 00000000 		or	%s0,0,%s62
 812      BE000045 
 813 0e18 00000000 		or	%s1,0,%s61
 813      BD000145 
 814 0e20 E0FFFFFF 		st	%s63,-32(,%fp)	# spill
 814      89003F11 
 815 0e28 00000000 		lea	%s12,cimagf@PLT_LO(-24)
 815      00680C06 
 816 0e30 00000000 		and	%s12,%s12,(32)0
 816      608C0C44 
 817 0e38 00000000 		sic	%lr
 817      00000A28 
 818 0e40 00000000 		lea.sl	%s12,cimagf@PLT_HI(%s12,%lr)
 818      8A8C8C06 
 819 0e48 00000000 		bsic	%lr,(,%s12)		# cimagf
 819      8C000A08 
 820              	.L_2.6:
 821 0e50 00000000 		cvt.d.s %s63,%s0
 821      00803F0F 
 822 0e58 C0000000 		st	%s63,192(0,%sp)
 822      8B003F11 
 823 0e60 E8FFFFFF 		ld	%s62,-24(,%fp)	# restore
 823      89003E01 
 824 0e68 B0000000 		st	%s62,176(0,%sp)
 824      8B003E11 
 825 0e70 E0FFFFFF 		ld	%s61,-32(,%fp)	# restore
 825      89003D01 
 826 0e78 B8000000 		st	%s61,184(0,%sp)
 826      8B003D11 
 827 0e80 00000000 		or	%s0,0,%s62
 827      BE000045 
 828 0e88 00000000 		or	%s1,0,%s61
 828      BD000145 
 829 0e90 00000000 		or	%s2,0,%s63
 829      BF000245 
 830 0e98 00000000 		lea	%s12,printf@PLT_LO(-24)
 830      00680C06 
 831 0ea0 00000000 		and	%s12,%s12,(32)0
 831      608C0C44 
 832 0ea8 00000000 		sic	%lr
 832      00000A28 
 833 0eb0 00000000 		lea.sl	%s12,printf@PLT_HI(%s12,%lr)
 833      8A8C8C06 
 834 0eb8 00000000 		bsic	%lr,(,%s12)		# printf
 834      8C000A08 
 835              	.L_2.5:
 836              	# line 26
  26:/usr/uhome/aurora/4gi/nlabhpg/kruus/vt/src/asm-examples/bug-fq_fn_fq8.c **** 	printf(" sum, via function call : (%f,%f)\n", crealf(sum1), cimagf(sum1));
 837              		.loc	1 26 0
 838 0ec0 00000000 		lea	%s63,.LP.__string.3@GOTOFF_LO
 838      00003F06 
 839 0ec8 00000000 		and	%s63,%s63,(32)0
 839      60BF3F44 
 840 0ed0 00000000 		lea.sl	%s63,.LP.__string.3@GOTOFF_HI(%s63,%got)
 840      8FBFBF06 
 841 0ed8 F8FFFFFF 		ld	%s0,-8(,%fp)	# restore
 841      89000001 
 842 0ee0 F0FFFFFF 		ld	%s1,-16(,%fp)	# restore
 842      89000101 
 843 0ee8 F8FFFFFF 		st	%s0,-8(,%fp)	# spill
 843      89000011 
 844 0ef0 F0FFFFFF 		st	%s1,-16(,%fp)	# spill
 844      89000111 
 845 0ef8 D8FFFFFF 		st	%s63,-40(,%fp)	# spill
 845      89003F11 
 846 0f00 00000000 		lea	%s12,crealf@PLT_LO(-24)
 846      00680C06 
 847 0f08 00000000 		and	%s12,%s12,(32)0
 847      608C0C44 
 848 0f10 00000000 		sic	%lr
 848      00000A28 
 849 0f18 00000000 		lea.sl	%s12,crealf@PLT_HI(%s12,%lr)
 849      8A8C8C06 
 850 0f20 00000000 		bsic	%lr,(,%s12)		# crealf
 850      8C000A08 
 851              	.L_2.4:
 852 0f28 00000000 		cvt.d.s %s63,%s0
 852      00803F0F 
 853 0f30 F8FFFFFF 		ld	%s0,-8(,%fp)	# restore
 853      89000001 
 854 0f38 F0FFFFFF 		ld	%s1,-16(,%fp)	# restore
 854      89000101 
 855 0f40 D0FFFFFF 		st	%s63,-48(,%fp)	# spill
 855      89003F11 
 856 0f48 00000000 		lea	%s12,cimagf@PLT_LO(-24)
 856      00680C06 
 857 0f50 00000000 		and	%s12,%s12,(32)0
 857      608C0C44 
 858 0f58 00000000 		sic	%lr
 858      00000A28 
 859 0f60 00000000 		lea.sl	%s12,cimagf@PLT_HI(%s12,%lr)
 859      8A8C8C06 
 860 0f68 00000000 		bsic	%lr,(,%s12)		# cimagf
 860      8C000A08 
 861              	.L_2.3:
 862 0f70 00000000 		cvt.d.s %s63,%s0
 862      00803F0F 
 863 0f78 C0000000 		st	%s63,192(0,%sp)
 863      8B003F11 
 864 0f80 D8FFFFFF 		ld	%s62,-40(,%fp)	# restore
 864      89003E01 
 865 0f88 B0000000 		st	%s62,176(0,%sp)
 865      8B003E11 
 866 0f90 D0FFFFFF 		ld	%s61,-48(,%fp)	# restore
 866      89003D01 
 867 0f98 B8000000 		st	%s61,184(0,%sp)
 867      8B003D11 
 868 0fa0 00000000 		or	%s0,0,%s62
 868      BE000045 
 869 0fa8 00000000 		or	%s1,0,%s61
 869      BD000145 
 870 0fb0 00000000 		or	%s2,0,%s63
 870      BF000245 
 871 0fb8 00000000 		lea	%s12,printf@PLT_LO(-24)
 871      00680C06 
 872 0fc0 00000000 		and	%s12,%s12,(32)0
 872      608C0C44 
 873 0fc8 00000000 		sic	%lr
 873      00000A28 
 874 0fd0 00000000 		lea.sl	%s12,printf@PLT_HI(%s12,%lr)
 874      8A8C8C06 
 875 0fd8 00000000 		bsic	%lr,(,%s12)		# printf
 875      8C000A08 
 876              	.L_2.2:
 877              	# line 27
  27:/usr/uhome/aurora/4gi/nlabhpg/kruus/vt/src/asm-examples/bug-fq_fn_fq8.c **** 	printf("Goodbye\n");
 878              		.loc	1 27 0
 879 0fe0 00000000 		lea	%s63,.LP.__string.4@GOTOFF_LO
 879      00003F06 
 880 0fe8 00000000 		and	%s63,%s63,(32)0
 880      60BF3F44 
 881 0ff0 00000000 		lea.sl	%s63,.LP.__string.4@GOTOFF_HI(%s63,%got)
 881      8FBFBF06 
 882 0ff8 B0000000 		st	%s63,176(0,%sp)
 882      8B003F11 
 883 1000 00000000 		or	%s0,0,%s63
 883      BF000045 
 884 1008 00000000 		lea	%s12,printf@PLT_LO(-24)
 884      00680C06 
 885 1010 00000000 		and	%s12,%s12,(32)0
 885      608C0C44 
 886 1018 00000000 		sic	%lr
 886      00000A28 
 887 1020 00000000 		lea.sl	%s12,printf@PLT_HI(%s12,%lr)
 887      8A8C8C06 
 888 1028 00000000 		bsic	%lr,(,%s12)		# printf
 888      8C000A08 
 889 1030 08000000 		br.l	.L_2.1
 889      00000F18 
 890              	.L_2.1:
 891              	# line 28
  28:/usr/uhome/aurora/4gi/nlabhpg/kruus/vt/src/asm-examples/bug-fq_fn_fq8.c **** }
 892              		.loc	1 28 0
 893 1038 00000000 		or	%s63,0,(0)1
 893      00003F45 
 894 1040 00000000 		or	%s0,0,%s63
 894      BF000045 
 895              	# Start of epilogue codes
 896 1048 00000000 		or	%sp,0,%fp
 896      89000B45 
 897              		.cfi_def_cfa	11,8
 898 1050 18000000 		ld	%got,0x18(,%sp)
 898      8B000F01 
 899 1058 20000000 		ld	%plt,0x20(,%sp)
 899      8B001001 
 900 1060 08000000 		ld	%lr,0x8(,%sp)
 900      8B000A01 
 901 1068 00000000 		ld	%fp,0x0(,%sp)
 901      8B000901 
 902 1070 00000000 		b.l	(,%lr)
 902      8A000F19 
 903              	.L_2.EoE:
 904              		.cfi_endproc
 905              		.set	.L.2.2auto_size,	0xfffffffffffffd70	# 656 Bytes
 907              	# ============ End  main ============
 908              	.Le1.0:
